csympy.matrices.immutable
ImmutableMatrix
p0
(csympy.core.numbers
Integer
p1
(I3
tp2
Rp3
(dp4
bg3
csympy.core.containers
Tuple
p5
(csympy.core.add
Add
p6
(csympy.core.mul
Mul
p7
(csympy.functions.elementary.trigonometric
sin
p8
(csympy.core.symbol
Symbol
p9
(S'r'
p10
tp11
Rp12
(dp13
S'_assumptions'
p14
ccopy_reg
_reconstructor
p15
(csympy.core.assumptions
StdFactKB
p16
c__builtin__
dict
p17
(dp18
S'real'
p19
NsS'irrational'
p20
NsS'antihermitian'
p21
NsS'nonpositive'
p22
NsS'algebraic'
p23
NsS'hermitian'
p24
NsS'infinite'
p25
NsS'integer'
p26
NsS'imaginary'
p27
NsS'odd'
p28
NsS'even'
p29
NsS'commutative'
p30
I01
sS'zero'
p31
NsS'positive'
p32
NsS'negative'
p33
NsS'nonnegative'
p34
NsS'complex'
p35
NsS'rational'
p36
NsS'finite'
p37
Nstp38
Rp39
(dp40
S'_generator'
p41
(dp42
sbsbtp43
Rp44
(dp45
bg8
(g9
(S'y'
p46
tp47
Rp48
(dp49
g14
g15
(g16
g17
(dp50
g19
Nsg20
Nsg21
Nsg22
Nsg23
Nsg24
Nsg25
Nsg26
Nsg27
Nsg28
Nsg29
Nsg30
I01
sg31
Nsg32
Nsg33
Nsg34
Nsg35
Nsg36
Nsg37
Nstp51
Rp52
(dp53
g41
(dp54
sbsbtp55
Rp56
(dp57
btp58
Rp59
(dp60
bg7
(csympy.functions.elementary.trigonometric
cos
p61
(g12
tp62
Rp63
(dp64
bg61
(g48
tp65
Rp66
(dp67
bg8
(g9
(S'p'
p68
tp69
Rp70
(dp71
g14
g15
(g16
g17
(dp72
g19
Nsg20
Nsg21
Nsg22
Nsg23
Nsg24
Nsg25
Nsg26
Nsg27
Nsg28
Nsg29
Nsg30
I01
sg31
Nsg32
Nsg33
Nsg34
Nsg35
Nsg36
Nsg37
Nstp73
Rp74
(dp75
g41
(dp76
sbsbtp77
Rp78
(dp79
btp80
Rp81
(dp82
btp83
Rp84
(dp85
bg6
(g7
(g63
g56
tp86
Rp87
(dp88
bg7
(csympy.core.numbers
NegativeOne
p89
(I-1
tp90
Rp91
(dp92
bg66
g78
g44
tp93
Rp94
(dp95
btp96
Rp97
(dp98
bg7
(g61
(g70
tp99
Rp100
(dp101
bg66
tp102
Rp103
(dp104
bg6
(g7
(g91
g66
g44
tp105
Rp106
(dp107
bg7
(g63
g78
g56
tp108
Rp109
(dp110
btp111
Rp112
(dp113
bg6
(g7
(g91
g63
g66
tp114
Rp115
(dp116
bg7
(g91
g78
g44
g56
tp117
Rp118
(dp119
btp120
Rp121
(dp122
bg7
(g100
g56
tp123
Rp124
(dp125
bg7
(g100
g63
tp126
Rp127
(dp128
bg7
(g91
g100
g44
tp129
Rp130
(dp131
bg7
(g91
g78
tp132
Rp133
(dp134
btp135
Rp136
(dp137
btp138
Rp139
(dp140
b.