csympy.matrices.immutable
ImmutableMatrix
p0
(csympy.core.numbers
Integer
p1
(I3
tp2
Rp3
(dp4
bg3
csympy.core.containers
Tuple
p5
(csympy.core.mul
Mul
p6
(csympy.functions.elementary.trigonometric
cos
p7
(csympy.core.symbol
Symbol
p8
(S'q1'
p9
tp10
Rp11
(dp12
S'_assumptions'
p13
ccopy_reg
_reconstructor
p14
(csympy.core.assumptions
StdFactKB
p15
c__builtin__
dict
p16
(dp17
S'real'
p18
NsS'irrational'
p19
NsS'antihermitian'
p20
NsS'nonpositive'
p21
NsS'algebraic'
p22
NsS'zero'
p23
NsS'infinite'
p24
NsS'integer'
p25
NsS'hermitian'
p26
NsS'odd'
p27
NsS'imaginary'
p28
NsS'even'
p29
NsS'commutative'
p30
I01
sS'positive'
p31
NsS'negative'
p32
NsS'nonnegative'
p33
NsS'complex'
p34
NsS'rational'
p35
NsS'finite'
p36
Nstp37
Rp38
(dp39
S'_generator'
p40
(dp41
sbsbtp42
Rp43
(dp44
bcsympy.functions.elementary.trigonometric
sin
p45
(csympy.core.add
Add
p46
(g8
(S'q2'
p47
tp48
Rp49
(dp50
g13
g14
(g15
g16
(dp51
g18
Nsg19
Nsg20
Nsg21
Nsg22
Nsg26
Nsg24
Nsg25
Nsg28
Nsg27
Nsg29
Nsg30
I01
sg23
Nsg31
Nsg32
Nsg33
Nsg34
Nsg35
Nsg36
Nstp52
Rp53
(dp54
g40
(dp55
sbsbg8
(S'q3'
p56
tp57
Rp58
(dp59
g13
g14
(g15
g16
(dp60
g18
Nsg19
Nsg20
Nsg21
Nsg22
Nsg26
Nsg24
Nsg25
Nsg28
Nsg27
Nsg29
Nsg30
I01
sg23
Nsg31
Nsg32
Nsg33
Nsg34
Nsg35
Nsg36
Nstp61
Rp62
(dp63
g40
(dp64
sbsbtp65
Rp66
(dp67
btp68
Rp69
(dp70
btp71
Rp72
(dp73
bg6
(g43
g7
(g46
(g49
g58
tp74
Rp75
(dp76
btp77
Rp78
(dp79
btp80
Rp81
(dp82
bg6
(csympy.core.numbers
NegativeOne
p83
(I-1
tp84
Rp85
(dp86
bg45
(g11
tp87
Rp88
(dp89
btp90
Rp91
(dp92
bg6
(g88
g69
tp93
Rp94
(dp95
bg6
(g78
g88
tp96
Rp97
(dp98
bg43
g78
g6
(g85
g69
tp99
Rp100
(dp101
bcsympy.core.numbers
Zero
p102
(I0
tp103
Rp104
(dp105
btp106
Rp107
(dp108
btp109
Rp110
(dp111
b.